; Function Attrs: mustprogress nofree norecurse nosync nounwind willreturn memory(argmem: write) uwtable
define void @_ZN5faiss9DirectMapC2Ev(ptr noundef nonnull align 8 dereferenceable(88) initializes((0, 4), (8, 32)) %0) unnamed_addr #0 align 2 {
  store i32 0, ptr %0, align 8, !tbaa !4
  %2 = getelementptr inbounds nuw i8, ptr %0, i64 8
  tail call void @llvm.memset.p0.i64(ptr noundef nonnull align 8 dereferenceable(24) %2, i8 0, i64 24, i1 false)
  %3 = getelementptr inbounds nuw i8, ptr %0, i64 32
  %4 = getelementptr inbounds nuw i8, ptr %0, i64 80
  store ptr %4, ptr %3, align 8, !tbaa !23
  %5 = getelementptr inbounds nuw i8, ptr %0, i64 40
  store i64 1, ptr %5, align 8, !tbaa !24
  %6 = getelementptr inbounds nuw i8, ptr %0, i64 48
  %7 = getelementptr inbounds nuw i8, ptr %0, i64 64
  tail call void @llvm.memset.p0.i64(ptr noundef nonnull align 8 dereferenceable(16) %6, i8 0, i64 16, i1 false)
  store float 1.000000e+00, ptr %7, align 8, !tbaa !25
  %8 = getelementptr inbounds nuw i8, ptr %0, i64 72
  tail call void @llvm.memset.p0.i64(ptr noundef nonnull align 8 dereferenceable(16) %8, i8 0, i64 16, i1 false)
  ret void
}